; Function Attrs: mustprogress nounwind uwtable
define hidden void @_ZN10duckdb_re211FilteredRE2D2Ev(ptr noundef nonnull align 8 captures(none) dereferenceable(40) %0) unnamed_addr #4 align 2 personality ptr @__gxx_personality_v0 {
  %2 = getelementptr inbounds nuw i8, ptr %0, i64 8
  %3 = load ptr, ptr %2, align 8, !tbaa !11
  %4 = load ptr, ptr %0, align 8, !tbaa !8
  %.not = icmp eq ptr %3, %4
  br i1 %.not, label %._crit_edge, label %.lr.ph

._crit_edge:                                      ; preds = %16, %1
  %5 = phi ptr [ %4, %1 ], [ %17, %16 ]
  %6 = getelementptr inbounds nuw i8, ptr %0, i64 32
  %7 = load ptr, ptr %6, align 8, !tbaa !3
  %.not.i = icmp eq ptr %7, null
  br i1 %.not.i, label %_ZNSt10unique_ptrIN10duckdb_re213PrefilterTreeESt14default_deleteIS1_EED2Ev.exit, label %_ZNKSt14default_deleteIN10duckdb_re213PrefilterTreeEEclEPS1_.exit.i

_ZNKSt14default_deleteIN10duckdb_re213PrefilterTreeEEclEPS1_.exit.i: ; preds = %._crit_edge
  tail call void @_ZN10duckdb_re213PrefilterTreeD1Ev(ptr noundef nonnull align 8 dereferenceable(104) %7) #16
  tail call void @_ZdlPv(ptr noundef nonnull %7) #15
  %.pre6 = load ptr, ptr %0, align 8, !tbaa !8
  br label %_ZNSt10unique_ptrIN10duckdb_re213PrefilterTreeESt14default_deleteIS1_EED2Ev.exit

_ZNSt10unique_ptrIN10duckdb_re213PrefilterTreeESt14default_deleteIS1_EED2Ev.exit: ; preds = %._crit_edge, %_ZNKSt14default_deleteIN10duckdb_re213PrefilterTreeEEclEPS1_.exit.i
  %8 = phi ptr [ %5, %._crit_edge ], [ %.pre6, %_ZNKSt14default_deleteIN10duckdb_re213PrefilterTreeEEclEPS1_.exit.i ]
  store ptr null, ptr %6, align 8, !tbaa !3
  %.not.i.i.i = icmp eq ptr %8, null
  br i1 %.not.i.i.i, label %_ZNSt6vectorIPN10duckdb_re23RE2ESaIS2_EED2Ev.exit, label %9

9:                                                ; preds = %_ZNSt10unique_ptrIN10duckdb_re213PrefilterTreeESt14default_deleteIS1_EED2Ev.exit
  tail call void @_ZdlPv(ptr noundef nonnull %8) #15
  br label %_ZNSt6vectorIPN10duckdb_re23RE2ESaIS2_EED2Ev.exit

_ZNSt6vectorIPN10duckdb_re23RE2ESaIS2_EED2Ev.exit: ; preds = %_ZNSt10unique_ptrIN10duckdb_re213PrefilterTreeESt14default_deleteIS1_EED2Ev.exit, %9
  ret void

.lr.ph:                                           ; preds = %1, %16
  %10 = phi ptr [ %17, %16 ], [ %4, %1 ]
  %11 = phi ptr [ %18, %16 ], [ %3, %1 ]
  %.04 = phi i64 [ %19, %16 ], [ 0, %1 ]
  %12 = getelementptr inbounds nuw ptr, ptr %10, i64 %.04
  %13 = load ptr, ptr %12, align 8, !tbaa !12
  %14 = icmp eq ptr %13, null
  br i1 %14, label %16, label %15

15:                                               ; preds = %.lr.ph
  tail call void @_ZN10duckdb_re23RE2D1Ev(ptr noundef nonnull align 8 dereferenceable(148) %13) #16
  tail call void @_ZdlPv(ptr noundef nonnull %13) #15
  %.pre = load ptr, ptr %2, align 8, !tbaa !11
  %.pre5 = load ptr, ptr %0, align 8, !tbaa !8
  br label %16

16:                                               ; preds = %.lr.ph, %15
  %17 = phi ptr [ %10, %.lr.ph ], [ %.pre5, %15 ]
  %18 = phi ptr [ %11, %.lr.ph ], [ %.pre, %15 ]
  %19 = add nuw i64 %.04, 1
  %20 = ptrtoint ptr %18 to i64
  %21 = ptrtoint ptr %17 to i64
  %22 = sub i64 %20, %21
  %23 = ashr exact i64 %22, 3
  %24 = icmp ult i64 %19, %23
  br i1 %24, label %.lr.ph, label %._crit_edge, !llvm.loop !14
}